target datalayout = "e-m:e-p270:32:32-p271:32:32-p272:64:64-i64:64-i128:128-f80:128-n8:16:32:64-S128"
target triple = "x86_64-unknown-linux-gnu"

%"class.std::vector.102" = type { %"struct.std::_Vector_base.103" }
%"struct.std::_Vector_base.103" = type { %"struct.std::_Vector_base<unsigned long, std::allocator<unsigned long>>::_Vector_impl" }
%"struct.std::_Vector_base<unsigned long, std::allocator<unsigned long>>::_Vector_impl" = type { %"struct.std::_Vector_base<unsigned long, std::allocator<unsigned long>>::_Vector_impl_data" }
%"struct.std::_Vector_base<unsigned long, std::allocator<unsigned long>>::_Vector_impl_data" = type { ptr, ptr, ptr }
%"class.facebook::velox::DecodedVector" = type { i32, ptr, ptr, ptr, %"class.std::optional.189", ptr, i8, i8, i8, i8, i8, i32, %"class.std::vector.197", %"class.std::vector.102" }
%"class.std::optional.189" = type { %"struct.std::_Optional_base.190" }
%"struct.std::_Optional_base.190" = type { %"struct.std::_Optional_payload.192" }
%"struct.std::_Optional_payload.192" = type { %"struct.std::_Optional_payload_base.base.194", [7 x i8] }
%"struct.std::_Optional_payload_base.base.194" = type <{ %"union.std::_Optional_payload_base<const unsigned long *>::_Storage", i8 }>
%"union.std::_Optional_payload_base<const unsigned long *>::_Storage" = type { ptr }
%"class.std::vector.197" = type { %"struct.std::_Vector_base.198" }
%"struct.std::_Vector_base.198" = type { %"struct.std::_Vector_base<int, std::allocator<int>>::_Vector_impl" }
%"struct.std::_Vector_base<int, std::allocator<int>>::_Vector_impl" = type { %"struct.std::_Vector_base<int, std::allocator<int>>::_Vector_impl_data" }
%"struct.std::_Vector_base<int, std::allocator<int>>::_Vector_impl_data" = type { ptr, ptr, ptr }

; Function Attrs: mustprogress nounwind uwtable
define linkonce_odr noundef i64 @_ZNK8facebook5velox13DecodedVector7valueAtIlEET_i(ptr noundef nonnull align 8 dereferenceable(120) %this, i32 noundef %idx) #5 comdat align 2 {
entry:
  %this.addr = alloca ptr, align 8
  %idx.addr = alloca i32, align 4
  store ptr %this, ptr %this.addr, align 8
  store i32 %idx, ptr %idx.addr, align 4
  %this1 = load ptr, ptr %this.addr, align 8
  %data_ = getelementptr inbounds %"class.facebook::velox::DecodedVector", ptr %this1, i32 0, i32 2
  %0 = load ptr, ptr %data_, align 8
  %1 = load i32, ptr %idx.addr, align 4
  %call = call noundef i32 @_ZNK8facebook5velox13DecodedVector5indexEi(ptr noundef nonnull align 8 dereferenceable(120) %this1, i32 noundef %1)
  %idxprom = sext i32 %call to i64
  %arrayidx = getelementptr inbounds i64, ptr %0, i64 %idxprom
  %2 = load i64, ptr %arrayidx, align 8
  ret i64 %2
}

; Function Attrs: mustprogress nounwind uwtable
define linkonce_odr noundef i32 @_ZNK8facebook5velox13DecodedVector5indexEi(ptr noundef nonnull align 8 dereferenceable(120) %this, i32 noundef %idx) #5 comdat align 2 {
entry:
  %retval = alloca i32, align 4
  %this.addr = alloca ptr, align 8
  %idx.addr = alloca i32, align 4
  store ptr %this, ptr %this.addr, align 8
  store i32 %idx, ptr %idx.addr, align 4
  %this1 = load ptr, ptr %this.addr, align 8
  %isIdentityMapping_ = getelementptr inbounds %"class.facebook::velox::DecodedVector", ptr %this1, i32 0, i32 8
  %0 = load i8, ptr %isIdentityMapping_, align 2
  %tobool = trunc i8 %0 to i1
  br i1 %tobool, label %if.then, label %if.end

if.then:                                          ; preds = %entry
  %1 = load i32, ptr %idx.addr, align 4
  store i32 %1, ptr %retval, align 4
  br label %return

if.end:                                           ; preds = %entry
  %isConstantMapping_ = getelementptr inbounds %"class.facebook::velox::DecodedVector", ptr %this1, i32 0, i32 9
  %2 = load i8, ptr %isConstantMapping_, align 1
  %tobool2 = trunc i8 %2 to i1
  br i1 %tobool2, label %if.then3, label %if.end4

if.then3:                                         ; preds = %if.end
  %constantIndex_ = getelementptr inbounds %"class.facebook::velox::DecodedVector", ptr %this1, i32 0, i32 11
  %3 = load i32, ptr %constantIndex_, align 8
  store i32 %3, ptr %retval, align 4
  br label %return

if.end4:                                          ; preds = %if.end
  %indices_ = getelementptr inbounds %"class.facebook::velox::DecodedVector", ptr %this1, i32 0, i32 1
  %4 = load ptr, ptr %indices_, align 8
  %5 = load i32, ptr %idx.addr, align 4
  %idxprom = sext i32 %5 to i64
  %arrayidx = getelementptr inbounds i32, ptr %4, i64 %idxprom
  %6 = load i32, ptr %arrayidx, align 4
  store i32 %6, ptr %retval, align 4
  br label %return

return:                                           ; preds = %if.end4, %if.then3, %if.then
  %7 = load i32, ptr %retval, align 4
  ret i32 %7
}

; Function Attrs: mustprogress uwtable
define internal noundef i64 @_ZN8facebook5velox9functions12_GLOBAL__N_116SequenceFunctionIilE7getStepEllPNS0_13DecodedVectorEibb(i64 noundef %start, i64 noundef %stop, ptr noundef %stepVector, i32 noundef %row, i1 noundef zeroext %isDate, i1 noundef zeroext %isYearMonth) #4 align 2 {
entry:
  %retval = alloca i64, align 8
  %start.addr = alloca i64, align 8
  %stop.addr = alloca i64, align 8
  %stepVector.addr = alloca ptr, align 8
  %row.addr = alloca i32, align 4
  %isDate.addr = alloca i8, align 1
  %isYearMonth.addr = alloca i8, align 1
  %step = alloca i64, align 8
  store i64 %start, ptr %start.addr, align 8
  store i64 %stop, ptr %stop.addr, align 8
  store ptr %stepVector, ptr %stepVector.addr, align 8
  store i32 %row, ptr %row.addr, align 4
  %frombool = zext i1 %isDate to i8
  store i8 %frombool, ptr %isDate.addr, align 1
  %frombool1 = zext i1 %isYearMonth to i8
  store i8 %frombool1, ptr %isYearMonth.addr, align 1
  %0 = load ptr, ptr %stepVector.addr, align 8
  %tobool = icmp ne ptr %0, null
  br i1 %tobool, label %if.end, label %if.then

if.then:                                          ; preds = %entry
  %1 = load i64, ptr %stop.addr, align 8
  %2 = load i64, ptr %start.addr, align 8
  %cmp = icmp sge i64 %1, %2
  %cond = select i1 %cmp, i32 1, i32 -1
  %conv = sext i32 %cond to i64
  store i64 %conv, ptr %retval, align 8
  br label %return

if.end:                                           ; preds = %entry
  %3 = load ptr, ptr %stepVector.addr, align 8
  %4 = load i32, ptr %row.addr, align 4
  %call = call noundef i64 @_ZNK8facebook5velox13DecodedVector7valueAtIlEET_i(ptr noundef nonnull align 8 dereferenceable(120) %3, i32 noundef %4)
  store i64 %call, ptr %step, align 8
  %5 = load i8, ptr %isDate.addr, align 1
  %tobool2 = trunc i8 %5 to i1
  br i1 %tobool2, label %lor.lhs.false, label %if.then4

lor.lhs.false:                                    ; preds = %if.end
  %6 = load i8, ptr %isYearMonth.addr, align 1
  %tobool3 = trunc i8 %6 to i1
  br i1 %tobool3, label %if.then4, label %if.end5

if.then4:                                         ; preds = %lor.lhs.false, %if.end
  %7 = load i64, ptr %step, align 8
  store i64 %7, ptr %retval, align 8
  br label %return

if.end5:                                          ; preds = %lor.lhs.false
  %8 = load i64, ptr %step, align 8
  %rem = srem i64 %8, 86400000
  %cmp6 = icmp eq i64 %rem, 0
  %lnot = xor i1 %cmp6, true
  br i1 %lnot, label %if.then8, label %if.end9

if.then8:                                         ; preds = %if.end5
  call void @llvm.trap()
  br label %if.end9

if.end9:                                          ; preds = %if.then8, %if.end5
  %9 = load i64, ptr %step, align 8
  %div = sdiv i64 %9, 86400000
  store i64 %div, ptr %retval, align 8
  br label %return

return:                                           ; preds = %if.end9, %if.then4, %if.then
  %10 = load i64, ptr %retval, align 8
  ret i64 %10
}

; Function Attrs: mustprogress nounwind uwtable
define internal noundef i64 @_ZN8facebook5velox9functions12_GLOBAL__N_17toInt64IiEElT_(i32 noundef %value) #5 {
entry:
  %value.addr = alloca i32, align 4
  store i32 %value, ptr %value.addr, align 4
  %0 = load i32, ptr %value.addr, align 4
  %conv = sext i32 %0 to i64
  ret i64 %conv
}

; Function Attrs: mustprogress uwtable
define linkonce_odr noundef i32 @_ZNK8facebook5velox13DecodedVector7valueAtIiEET_i(ptr noundef nonnull align 8 dereferenceable(120) %this, i32 noundef %idx) #4 comdat align 2 {
entry:
  %this.addr = alloca ptr, align 8
  %idx.addr = alloca i32, align 4
  store ptr %this, ptr %this.addr, align 8
  store i32 %idx, ptr %idx.addr, align 4
  %this1 = load ptr, ptr %this.addr, align 8
  %data_ = getelementptr inbounds %"class.facebook::velox::DecodedVector", ptr %this1, i32 0, i32 2
  %0 = load ptr, ptr %data_, align 8
  %1 = load i32, ptr %idx.addr, align 4
  %call = call noundef i32 @_ZNK8facebook5velox13DecodedVector5indexEi(ptr noundef nonnull align 8 dereferenceable(120) %this1, i32 noundef %1)
  %idxprom = sext i32 %call to i64
  %arrayidx = getelementptr inbounds i32, ptr %0, i64 %idxprom
  %2 = load i32, ptr %arrayidx, align 4
  ret i32 %2
}

; Function Attrs: mustprogress uwtable
define internal noundef i32 @_ZN8facebook5velox9functions12_GLOBAL__N_116SequenceFunctionIilE14checkArgumentsEPNS0_13DecodedVectorES6_S6_ibb(ptr noundef %startVector, ptr noundef %stopVector, ptr noundef %stepVector, i32 noundef %row, i1 noundef zeroext %isDate, i1 noundef zeroext %isYearMonth) #4 align 2 {
entry:
  %startVector.addr = alloca ptr, align 8
  %stopVector.addr = alloca ptr, align 8
  %stepVector.addr = alloca ptr, align 8
  %row.addr = alloca i32, align 4
  %isDate.addr = alloca i8, align 1
  %isYearMonth.addr = alloca i8, align 1
  %start = alloca i32, align 4
  %stop = alloca i32, align 4
  %step = alloca i64, align 8
  %sequenceCount = alloca i128, align 16
  %coerce = alloca i128, align 16
  store ptr %startVector, ptr %startVector.addr, align 8
  store ptr %stopVector, ptr %stopVector.addr, align 8
  store ptr %stepVector, ptr %stepVector.addr, align 8
  store i32 %row, ptr %row.addr, align 4
  %frombool = zext i1 %isDate to i8
  store i8 %frombool, ptr %isDate.addr, align 1
  %frombool1 = zext i1 %isYearMonth to i8
  store i8 %frombool1, ptr %isYearMonth.addr, align 1
  %0 = load ptr, ptr %startVector.addr, align 8
  %1 = load i32, ptr %row.addr, align 4
  %call = call noundef i32 @_ZNK8facebook5velox13DecodedVector7valueAtIiEET_i(ptr noundef nonnull align 8 dereferenceable(120) %0, i32 noundef %1)
  store i32 %call, ptr %start, align 4
  %2 = load ptr, ptr %stopVector.addr, align 8
  %3 = load i32, ptr %row.addr, align 4
  %call2 = call noundef i32 @_ZNK8facebook5velox13DecodedVector7valueAtIiEET_i(ptr noundef nonnull align 8 dereferenceable(120) %2, i32 noundef %3)
  store i32 %call2, ptr %stop, align 4
  %4 = load i32, ptr %start, align 4
  %call3 = call noundef i64 @_ZN8facebook5velox9functions12_GLOBAL__N_17toInt64IiEElT_(i32 noundef %4)
  %5 = load i32, ptr %stop, align 4
  %call4 = call noundef i64 @_ZN8facebook5velox9functions12_GLOBAL__N_17toInt64IiEElT_(i32 noundef %5)
  %6 = load ptr, ptr %stepVector.addr, align 8
  %7 = load i32, ptr %row.addr, align 4
  %8 = load i8, ptr %isDate.addr, align 1
  %tobool = trunc i8 %8 to i1
  %9 = load i8, ptr %isYearMonth.addr, align 1
  %tobool5 = trunc i8 %9 to i1
  %call6 = call noundef i64 @_ZN8facebook5velox9functions12_GLOBAL__N_116SequenceFunctionIilE7getStepEllPNS0_13DecodedVectorEibb(i64 noundef %call3, i64 noundef %call4, ptr noundef %6, i32 noundef %7, i1 noundef zeroext %tobool, i1 noundef zeroext %tobool5)
  store i64 %call6, ptr %step, align 8
  %10 = load i64, ptr %step, align 8
  %cmp = icmp ne i64 %10, 0
  %lnot = xor i1 %cmp, true
  br i1 %lnot, label %if.then, label %if.end

if.then:                                          ; preds = %entry
  call void @llvm.trap()
  br label %if.end

if.end:                                           ; preds = %if.then, %entry
  %11 = load i64, ptr %step, align 8
  %cmp7 = icmp sgt i64 %11, 0
  br i1 %cmp7, label %cond.true, label %cond.false

cond.true:                                        ; preds = %if.end
  %12 = load i32, ptr %stop, align 4
  %13 = load i32, ptr %start, align 4
  %cmp8 = icmp sge i32 %12, %13
  br label %cond.end

cond.false:                                       ; preds = %if.end
  %14 = load i32, ptr %stop, align 4
  %15 = load i32, ptr %start, align 4
  %cmp9 = icmp sle i32 %14, %15
  br label %cond.end

cond.end:                                         ; preds = %cond.false, %cond.true
  %cond = phi i1 [ %cmp8, %cond.true ], [ %cmp9, %cond.false ]
  %lnot10 = xor i1 %cond, true
  br i1 %lnot10, label %if.then11, label %if.end12

if.then11:                                        ; preds = %cond.end
  call void @llvm.trap()
  br label %if.end12

if.end12:                                         ; preds = %if.then11, %cond.end
  %16 = load i8, ptr %isYearMonth.addr, align 1
  %tobool13 = trunc i8 %16 to i1
  br i1 %tobool13, label %if.then14, label %if.else

if.then14:                                        ; preds = %if.end12
  %17 = load i32, ptr %start, align 4
  %18 = load i32, ptr %stop, align 4
  %19 = load i64, ptr %step, align 8
  %conv = trunc i64 %19 to i32
  %call15 = call noundef { i64, i64 } @_ZN8facebook5velox9functions12_GLOBAL__N_112getStepCountEiii(i32 noundef %17, i32 noundef %18, i32 noundef %conv)
  %20 = getelementptr inbounds { i64, i64 }, ptr %coerce, i32 0, i32 0
  %21 = extractvalue { i64, i64 } %call15, 0
  store i64 %21, ptr %20, align 16
  %22 = getelementptr inbounds { i64, i64 }, ptr %coerce, i32 0, i32 1
  %23 = extractvalue { i64, i64 } %call15, 1
  store i64 %23, ptr %22, align 8
  %24 = load i128, ptr %coerce, align 16
  store i128 %24, ptr %sequenceCount, align 16
  br label %if.end21

if.else:                                          ; preds = %if.end12
  %25 = load i32, ptr %stop, align 4
  %call16 = call noundef i64 @_ZN8facebook5velox9functions12_GLOBAL__N_17toInt64IiEElT_(i32 noundef %25)
  %conv17 = sext i64 %call16 to i128
  %26 = load i32, ptr %start, align 4
  %call18 = call noundef i64 @_ZN8facebook5velox9functions12_GLOBAL__N_17toInt64IiEElT_(i32 noundef %26)
  %conv19 = sext i64 %call18 to i128
  %sub = sub nsw i128 %conv17, %conv19
  %27 = load i64, ptr %step, align 8
  %conv20 = sext i64 %27 to i128
  %div = sdiv i128 %sub, %conv20
  %add = add nsw i128 %div, 1
  store i128 %add, ptr %sequenceCount, align 16
  br label %if.end21

if.end21:                                         ; preds = %if.else, %if.then14
  %28 = load i128, ptr %sequenceCount, align 16
  %cmp22 = icmp sle i128 %28, 10000
  %lnot23 = xor i1 %cmp22, true
  br i1 %lnot23, label %if.then25, label %if.end26

if.then25:                                        ; preds = %if.end21
  call void @llvm.trap()
  br label %if.end26

if.end26:                                         ; preds = %if.then25, %if.end21
  %29 = load i128, ptr %sequenceCount, align 16
  %conv27 = trunc i128 %29 to i32
  ret i32 %conv27
}